target datalayout = "e-m:e-p270:32:32-p271:32:32-p272:64:64-i64:64-i128:128-f80:128-n8:16:32:64-S128"
target triple = "x86_64-pc-linux-gnu"

%struct.X509_pubkey_st = type { ptr, ptr, ptr, ptr, ptr, i8 }
%struct.asn1_string_st = type { i32, i32, ptr, i64 }
%struct.X509_algor_st = type { ptr, ptr }

; Function Attrs: nounwind uwtable
define i32 @X509_PUBKEY_get0_param(ptr noundef %0, ptr noundef %1, ptr noundef %2, ptr noundef %3, ptr noundef %4) #0 {
  %6 = alloca ptr, align 8
  %7 = alloca ptr, align 8
  %8 = alloca ptr, align 8
  %9 = alloca ptr, align 8
  %10 = alloca ptr, align 8
  store ptr %0, ptr %6, align 8, !tbaa !95
  store ptr %1, ptr %7, align 8, !tbaa !3
  store ptr %2, ptr %8, align 8, !tbaa !97
  store ptr %3, ptr %9, align 8, !tbaa !99
  store ptr %4, ptr %10, align 8, !tbaa !14
  %11 = load ptr, ptr %6, align 8, !tbaa !95
  %12 = icmp ne ptr %11, null
  br i1 %12, label %13, label %20

13:                                               ; preds = %5
  %14 = load ptr, ptr %10, align 8, !tbaa !14
  %15 = getelementptr inbounds nuw %struct.X509_pubkey_st, ptr %14, i32 0, i32 0
  %16 = load ptr, ptr %15, align 8, !tbaa !25
  %17 = getelementptr inbounds nuw %struct.X509_algor_st, ptr %16, i32 0, i32 0
  %18 = load ptr, ptr %17, align 8, !tbaa !39
  %19 = load ptr, ptr %6, align 8, !tbaa !95
  store ptr %18, ptr %19, align 8, !tbaa !94
  br label %20

20:                                               ; preds = %13, %5
  %21 = load ptr, ptr %7, align 8, !tbaa !3
  %22 = icmp ne ptr %21, null
  br i1 %22, label %23, label %36

23:                                               ; preds = %20
  %24 = load ptr, ptr %10, align 8, !tbaa !14
  %25 = getelementptr inbounds nuw %struct.X509_pubkey_st, ptr %24, i32 0, i32 1
  %26 = load ptr, ptr %25, align 8, !tbaa !26
  %27 = getelementptr inbounds nuw %struct.asn1_string_st, ptr %26, i32 0, i32 2
  %28 = load ptr, ptr %27, align 8, !tbaa !27
  %29 = load ptr, ptr %7, align 8, !tbaa !3
  store ptr %28, ptr %29, align 8, !tbaa !12
  %30 = load ptr, ptr %10, align 8, !tbaa !14
  %31 = getelementptr inbounds nuw %struct.X509_pubkey_st, ptr %30, i32 0, i32 1
  %32 = load ptr, ptr %31, align 8, !tbaa !26
  %33 = getelementptr inbounds nuw %struct.asn1_string_st, ptr %32, i32 0, i32 0
  %34 = load i32, ptr %33, align 8, !tbaa !29
  %35 = load ptr, ptr %8, align 8, !tbaa !97
  store i32 %34, ptr %35, align 4, !tbaa !43
  br label %36

36:                                               ; preds = %23, %20
  %37 = load ptr, ptr %9, align 8, !tbaa !99
  %38 = icmp ne ptr %37, null
  br i1 %38, label %39, label %44

39:                                               ; preds = %36
  %40 = load ptr, ptr %10, align 8, !tbaa !14
  %41 = getelementptr inbounds nuw %struct.X509_pubkey_st, ptr %40, i32 0, i32 0
  %42 = load ptr, ptr %41, align 8, !tbaa !25
  %43 = load ptr, ptr %9, align 8, !tbaa !99
  store ptr %42, ptr %43, align 8, !tbaa !101
  br label %44

44:                                               ; preds = %39, %36
  ret i32 1
}