; Function Attrs: mustprogress nofree norecurse nosync nounwind willreturn memory(read, argmem: readwrite, inaccessiblemem: none) uwtable
define noundef i32 @X509_PUBKEY_get0_param(ptr noundef writeonly captures(address_is_null) %0, ptr noundef writeonly captures(address_is_null) %1, ptr noundef writeonly captures(none) %2, ptr noundef writeonly captures(address_is_null) %3, ptr noundef readonly captures(none) %4) local_unnamed_addr #5 {
  %.not = icmp eq ptr %0, null
  br i1 %.not, label %9, label %6

6:                                                ; preds = %5
  %7 = load ptr, ptr %4, align 8, !tbaa !17
  %8 = load ptr, ptr %7, align 8, !tbaa !26
  store ptr %8, ptr %0, align 8, !tbaa !66
  br label %9

9:                                                ; preds = %6, %5
  %.not13 = icmp eq ptr %1, null
  br i1 %.not13, label %16, label %10

10:                                               ; preds = %9
  %11 = getelementptr inbounds nuw i8, ptr %4, i64 8
  %12 = load ptr, ptr %11, align 8, !tbaa !18
  %13 = getelementptr inbounds nuw i8, ptr %12, i64 8
  %14 = load ptr, ptr %13, align 8, !tbaa !20
  store ptr %14, ptr %1, align 8, !tbaa !46
  %15 = load i32, ptr %12, align 8, !tbaa !23
  store i32 %15, ptr %2, align 4, !tbaa !67
  br label %16

16:                                               ; preds = %10, %9
  %.not14 = icmp eq ptr %3, null
  br i1 %.not14, label %19, label %17

17:                                               ; preds = %16
  %18 = load ptr, ptr %4, align 8, !tbaa !17
  store ptr %18, ptr %3, align 8, !tbaa !68
  br label %19

19:                                               ; preds = %17, %16
  ret i32 1
}